target datalayout = "e-m:e-p270:32:32-p271:32:32-p272:64:64-i64:64-i128:128-f80:128-n8:16:32:64-S128"
target triple = "x86_64-pc-linux-gnu"

%struct.evthread_lock_callbacks = type { i32, i32, ptr, ptr, ptr, ptr }
%struct.evbuffer_chain = type { ptr, i64, i64, i64, i32, i32, ptr }
%struct.evbuffer = type { ptr, ptr, ptr, i64, i64, i64, i64, ptr, i8, i32, ptr, i32, %struct.event_callback, %struct.evbuffer_cb_queue, ptr }
%struct.event_callback = type { %struct.anon, i16, i8, i8, %union.anon, ptr }
%struct.anon = type { ptr, ptr }
%union.anon = type { ptr }
%struct.evbuffer_cb_queue = type { ptr }
%struct.evbuffer_ptr = type { i64, %struct.anon.0 }
%struct.anon.0 = type { ptr, i64 }

@evthread_lock_fns_ = external global %struct.evthread_lock_callbacks, align 8

; Function Attrs: nounwind uwtable
define i32 @evbuffer_ptr_set(ptr noundef %0, ptr noundef %1, i64 noundef %2, i32 noundef %3) #0 {
  %5 = alloca i32, align 4
  %6 = alloca ptr, align 8
  %7 = alloca ptr, align 8
  %8 = alloca i64, align 8
  %9 = alloca i32, align 4
  %10 = alloca i64, align 8
  %11 = alloca ptr, align 8
  %12 = alloca i32, align 4
  %13 = alloca i32, align 4
  store ptr %0, ptr %6, align 8
  store ptr %1, ptr %7, align 8
  store i64 %2, ptr %8, align 8
  store i32 %3, ptr %9, align 4
  call void @llvm.lifetime.start.p0(i64 8, ptr %10) #10
  %14 = load i64, ptr %8, align 8
  store i64 %14, ptr %10, align 8
  call void @llvm.lifetime.start.p0(i64 8, ptr %11) #10
  store ptr null, ptr %11, align 8
  call void @llvm.lifetime.start.p0(i64 4, ptr %12) #10
  store i32 0, ptr %12, align 4
  br label %15

15:                                               ; preds = %4
  br label %16

16:                                               ; preds = %15
  %17 = load ptr, ptr %6, align 8
  %18 = getelementptr inbounds nuw %struct.evbuffer, ptr %17, i32 0, i32 7
  %19 = load ptr, ptr %18, align 8
  %20 = icmp ne ptr %19, null
  br i1 %20, label %21, label %27

21:                                               ; preds = %16
  %22 = load ptr, ptr getelementptr inbounds nuw (%struct.evthread_lock_callbacks, ptr @evthread_lock_fns_, i32 0, i32 4), align 8
  %23 = load ptr, ptr %6, align 8
  %24 = getelementptr inbounds nuw %struct.evbuffer, ptr %23, i32 0, i32 7
  %25 = load ptr, ptr %24, align 8
  %26 = call i32 %22(i32 noundef 0, ptr noundef %25)
  br label %27

27:                                               ; preds = %21, %16
  br label %28

28:                                               ; preds = %27
  br label %29

29:                                               ; preds = %28
  br label %30

30:                                               ; preds = %29
  br label %31

31:                                               ; preds = %30
  %32 = load i32, ptr %9, align 4
  switch i32 %32, label %84 [
    i32 0, label %33
    i32 1, label %40
  ]

33:                                               ; preds = %31
  %34 = load ptr, ptr %6, align 8
  %35 = getelementptr inbounds nuw %struct.evbuffer, ptr %34, i32 0, i32 0
  %36 = load ptr, ptr %35, align 8
  store ptr %36, ptr %11, align 8
  %37 = load i64, ptr %8, align 8
  %38 = load ptr, ptr %7, align 8
  %39 = getelementptr inbounds nuw %struct.evbuffer_ptr, ptr %38, i32 0, i32 0
  store i64 %37, ptr %39, align 8
  store i64 0, ptr %8, align 8
  br label %84

40:                                               ; preds = %31
  %41 = load ptr, ptr %7, align 8
  %42 = getelementptr inbounds nuw %struct.evbuffer_ptr, ptr %41, i32 0, i32 0
  %43 = load i64, ptr %42, align 8
  %44 = icmp slt i64 %43, 0
  br i1 %44, label %52, label %45

45:                                               ; preds = %40
  %46 = load i64, ptr %8, align 8
  %47 = sub i64 -1, %46
  %48 = load ptr, ptr %7, align 8
  %49 = getelementptr inbounds nuw %struct.evbuffer_ptr, ptr %48, i32 0, i32 0
  %50 = load i64, ptr %49, align 8
  %51 = icmp ult i64 %47, %50
  br i1 %51, label %52, label %70

52:                                               ; preds = %45, %40
  br label %53

53:                                               ; preds = %52
  br label %54

54:                                               ; preds = %53
  %55 = load ptr, ptr %6, align 8
  %56 = getelementptr inbounds nuw %struct.evbuffer, ptr %55, i32 0, i32 7
  %57 = load ptr, ptr %56, align 8
  %58 = icmp ne ptr %57, null
  br i1 %58, label %59, label %65

59:                                               ; preds = %54
  %60 = load ptr, ptr getelementptr inbounds nuw (%struct.evthread_lock_callbacks, ptr @evthread_lock_fns_, i32 0, i32 5), align 8
  %61 = load ptr, ptr %6, align 8
  %62 = getelementptr inbounds nuw %struct.evbuffer, ptr %61, i32 0, i32 7
  %63 = load ptr, ptr %62, align 8
  %64 = call i32 %60(i32 noundef 0, ptr noundef %63)
  br label %65

65:                                               ; preds = %59, %54
  br label %66

66:                                               ; preds = %65
  br label %67

67:                                               ; preds = %66
  br label %68

68:                                               ; preds = %67
  br label %69

69:                                               ; preds = %68
  store i32 -1, ptr %5, align 4
  store i32 1, ptr %13, align 4
  br label %168

70:                                               ; preds = %45
  %71 = load ptr, ptr %7, align 8
  %72 = getelementptr inbounds nuw %struct.evbuffer_ptr, ptr %71, i32 0, i32 1
  %73 = getelementptr inbounds nuw %struct.anon.0, ptr %72, i32 0, i32 0
  %74 = load ptr, ptr %73, align 8
  store ptr %74, ptr %11, align 8
  %75 = load i64, ptr %8, align 8
  %76 = load ptr, ptr %7, align 8
  %77 = getelementptr inbounds nuw %struct.evbuffer_ptr, ptr %76, i32 0, i32 0
  %78 = load i64, ptr %77, align 8
  %79 = add i64 %78, %75
  store i64 %79, ptr %77, align 8
  %80 = load ptr, ptr %7, align 8
  %81 = getelementptr inbounds nuw %struct.evbuffer_ptr, ptr %80, i32 0, i32 1
  %82 = getelementptr inbounds nuw %struct.anon.0, ptr %81, i32 0, i32 1
  %83 = load i64, ptr %82, align 8
  store i64 %83, ptr %8, align 8
  br label %84

84:                                               ; preds = %31, %70, %33
  br label %85

85:                                               ; preds = %84
  br label %86

86:                                               ; preds = %85
  br label %87

87:                                               ; preds = %86
  br label %88

88:                                               ; preds = %101, %87
  %89 = load ptr, ptr %11, align 8
  %90 = icmp ne ptr %89, null
  br i1 %90, label %91, label %99

91:                                               ; preds = %88
  %92 = load i64, ptr %8, align 8
  %93 = load i64, ptr %10, align 8
  %94 = add i64 %92, %93
  %95 = load ptr, ptr %11, align 8
  %96 = getelementptr inbounds nuw %struct.evbuffer_chain, ptr %95, i32 0, i32 3
  %97 = load i64, ptr %96, align 8
  %98 = icmp uge i64 %94, %97
  br label %99

99:                                               ; preds = %91, %88
  %100 = phi i1 [ false, %88 ], [ %98, %91 ]
  br i1 %100, label %101, label %112

101:                                              ; preds = %99
  %102 = load ptr, ptr %11, align 8
  %103 = getelementptr inbounds nuw %struct.evbuffer_chain, ptr %102, i32 0, i32 3
  %104 = load i64, ptr %103, align 8
  %105 = load i64, ptr %8, align 8
  %106 = sub i64 %104, %105
  %107 = load i64, ptr %10, align 8
  %108 = sub i64 %107, %106
  store i64 %108, ptr %10, align 8
  %109 = load ptr, ptr %11, align 8
  %110 = getelementptr inbounds nuw %struct.evbuffer_chain, ptr %109, i32 0, i32 0
  %111 = load ptr, ptr %110, align 8
  store ptr %111, ptr %11, align 8
  store i64 0, ptr %8, align 8
  br label %88, !llvm.loop !32

112:                                              ; preds = %99
  %113 = load ptr, ptr %11, align 8
  %114 = icmp ne ptr %113, null
  br i1 %114, label %115, label %126

115:                                              ; preds = %112
  %116 = load ptr, ptr %11, align 8
  %117 = load ptr, ptr %7, align 8
  %118 = getelementptr inbounds nuw %struct.evbuffer_ptr, ptr %117, i32 0, i32 1
  %119 = getelementptr inbounds nuw %struct.anon.0, ptr %118, i32 0, i32 0
  store ptr %116, ptr %119, align 8
  %120 = load i64, ptr %8, align 8
  %121 = load i64, ptr %10, align 8
  %122 = add i64 %120, %121
  %123 = load ptr, ptr %7, align 8
  %124 = getelementptr inbounds nuw %struct.evbuffer_ptr, ptr %123, i32 0, i32 1
  %125 = getelementptr inbounds nuw %struct.anon.0, ptr %124, i32 0, i32 1
  store i64 %122, ptr %125, align 8
  br label %149

126:                                              ; preds = %112
  %127 = load i64, ptr %10, align 8
  %128 = icmp eq i64 %127, 0
  br i1 %128, label %129, label %136

129:                                              ; preds = %126
  %130 = load ptr, ptr %7, align 8
  %131 = getelementptr inbounds nuw %struct.evbuffer_ptr, ptr %130, i32 0, i32 1
  %132 = getelementptr inbounds nuw %struct.anon.0, ptr %131, i32 0, i32 0
  store ptr null, ptr %132, align 8
  %133 = load ptr, ptr %7, align 8
  %134 = getelementptr inbounds nuw %struct.evbuffer_ptr, ptr %133, i32 0, i32 1
  %135 = getelementptr inbounds nuw %struct.anon.0, ptr %134, i32 0, i32 1
  store i64 0, ptr %135, align 8
  br label %148

136:                                              ; preds = %126
  br label %137

137:                                              ; preds = %136
  %138 = load ptr, ptr %7, align 8
  %139 = getelementptr inbounds nuw %struct.evbuffer_ptr, ptr %138, i32 0, i32 0
  store i64 -1, ptr %139, align 8
  %140 = load ptr, ptr %7, align 8
  %141 = getelementptr inbounds nuw %struct.evbuffer_ptr, ptr %140, i32 0, i32 1
  %142 = getelementptr inbounds nuw %struct.anon.0, ptr %141, i32 0, i32 0
  store ptr null, ptr %142, align 8
  %143 = load ptr, ptr %7, align 8
  %144 = getelementptr inbounds nuw %struct.evbuffer_ptr, ptr %143, i32 0, i32 1
  %145 = getelementptr inbounds nuw %struct.anon.0, ptr %144, i32 0, i32 1
  store i64 0, ptr %145, align 8
  br label %146

146:                                              ; preds = %137
  br label %147

147:                                              ; preds = %146
  store i32 -1, ptr %12, align 4
  br label %148

148:                                              ; preds = %147, %129
  br label %149

149:                                              ; preds = %148, %115
  br label %150

150:                                              ; preds = %149
  br label %151

151:                                              ; preds = %150
  %152 = load ptr, ptr %6, align 8
  %153 = getelementptr inbounds nuw %struct.evbuffer, ptr %152, i32 0, i32 7
  %154 = load ptr, ptr %153, align 8
  %155 = icmp ne ptr %154, null
  br i1 %155, label %156, label %162

156:                                              ; preds = %151
  %157 = load ptr, ptr getelementptr inbounds nuw (%struct.evthread_lock_callbacks, ptr @evthread_lock_fns_, i32 0, i32 5), align 8
  %158 = load ptr, ptr %6, align 8
  %159 = getelementptr inbounds nuw %struct.evbuffer, ptr %158, i32 0, i32 7
  %160 = load ptr, ptr %159, align 8
  %161 = call i32 %157(i32 noundef 0, ptr noundef %160)
  br label %162

162:                                              ; preds = %156, %151
  br label %163

163:                                              ; preds = %162
  br label %164

164:                                              ; preds = %163
  br label %165

165:                                              ; preds = %164
  br label %166

166:                                              ; preds = %165
  %167 = load i32, ptr %12, align 4
  store i32 %167, ptr %5, align 4
  store i32 1, ptr %13, align 4
  br label %168

168:                                              ; preds = %166, %69
  call void @llvm.lifetime.end.p0(i64 4, ptr %12) #10
  call void @llvm.lifetime.end.p0(i64 8, ptr %11) #10
  call void @llvm.lifetime.end.p0(i64 8, ptr %10) #10
  %169 = load i32, ptr %5, align 4
  ret i32 %169
}