; Function Attrs: nounwind uwtable
define range(i32 -1, 1) i32 @evbuffer_ptr_set(ptr noundef readonly captures(none) %0, ptr noundef captures(none) %1, i64 noundef %2, i32 noundef %3) local_unnamed_addr #1 {
  %5 = getelementptr inbounds nuw i8, ptr %0, i64 56
  %6 = load ptr, ptr %5, align 8
  %.not = icmp eq ptr %6, null
  br i1 %.not, label %10, label %7

7:                                                ; preds = %4
  %8 = load ptr, ptr getelementptr inbounds nuw (i8, ptr @evthread_lock_fns_, i64 24), align 8
  %9 = tail call i32 %8(i32 noundef 0, ptr noundef nonnull %6) #16
  br label %10

10:                                               ; preds = %7, %4
  switch i32 %3, label %.critedge54 [
    i32 0, label %11
    i32 1, label %13
  ]

11:                                               ; preds = %10
  %12 = load ptr, ptr %0, align 8
  store i64 %2, ptr %1, align 8
  br label %26

13:                                               ; preds = %10
  %14 = load i64, ptr %1, align 8
  %15 = icmp slt i64 %14, 0
  %16 = xor i64 %2, -1
  %17 = icmp ugt i64 %14, %16
  %or.cond = or i1 %15, %17
  br i1 %or.cond, label %18, label %20

18:                                               ; preds = %13
  %19 = load ptr, ptr %5, align 8
  %.not49 = icmp eq ptr %19, null
  br i1 %.not49, label %44, label %.sink.split

20:                                               ; preds = %13
  %21 = getelementptr inbounds nuw i8, ptr %1, i64 8
  %22 = load ptr, ptr %21, align 8
  %23 = add i64 %14, %2
  store i64 %23, ptr %1, align 8
  %24 = getelementptr inbounds nuw i8, ptr %1, i64 16
  %25 = load i64, ptr %24, align 8
  br label %26

26:                                               ; preds = %11, %20
  %.042 = phi i64 [ %25, %20 ], [ 0, %11 ]
  %.039 = phi ptr [ %22, %20 ], [ %12, %11 ]
  %.not5058 = icmp eq ptr %.039, null
  br i1 %.not5058, label %.critedge54, label %.lr.ph

.lr.ph:                                           ; preds = %26, %30
  %.161 = phi ptr [ %32, %30 ], [ %.039, %26 ]
  %.04060 = phi i64 [ %31, %30 ], [ %2, %26 ]
  %.14359 = phi i64 [ 0, %30 ], [ %.042, %26 ]
  %27 = add i64 %.04060, %.14359
  %28 = getelementptr inbounds nuw i8, ptr %.161, i64 24
  %29 = load i64, ptr %28, align 8
  %.not51 = icmp ult i64 %27, %29
  br i1 %.not51, label %.critedge, label %30

30:                                               ; preds = %.lr.ph
  %31 = sub nuw i64 %27, %29
  %32 = load ptr, ptr %.161, align 8
  %.not50 = icmp eq ptr %32, null
  br i1 %.not50, label %.critedge54, label %.lr.ph, !llvm.loop !31

.critedge:                                        ; preds = %.lr.ph
  %33 = getelementptr inbounds nuw i8, ptr %1, i64 8
  store ptr %.161, ptr %33, align 8
  %34 = getelementptr inbounds nuw i8, ptr %1, i64 16
  store i64 %27, ptr %34, align 8
  br label %40

.critedge54:                                      ; preds = %30, %10, %26
  %.040.lcssa = phi i64 [ %2, %26 ], [ %2, %10 ], [ %31, %30 ]
  %35 = icmp eq i64 %.040.lcssa, 0
  br i1 %35, label %36, label %38

36:                                               ; preds = %.critedge54
  %37 = getelementptr inbounds nuw i8, ptr %1, i64 8
  tail call void @llvm.memset.p0.i64(ptr noundef nonnull align 8 dereferenceable(16) %37, i8 0, i64 16, i1 false)
  br label %40

38:                                               ; preds = %.critedge54
  store i64 -1, ptr %1, align 8
  %39 = getelementptr inbounds nuw i8, ptr %1, i64 8
  tail call void @llvm.memset.p0.i64(ptr noundef nonnull align 8 dereferenceable(16) %39, i8 0, i64 16, i1 false)
  br label %40

40:                                               ; preds = %36, %38, %.critedge
  %.0 = phi i32 [ 0, %.critedge ], [ 0, %36 ], [ -1, %38 ]
  %41 = load ptr, ptr %5, align 8
  %.not52 = icmp eq ptr %41, null
  br i1 %.not52, label %44, label %.sink.split

.sink.split:                                      ; preds = %40, %18
  %.sink = phi ptr [ %19, %18 ], [ %41, %40 ]
  %.041.ph = phi i32 [ -1, %18 ], [ %.0, %40 ]
  %42 = load ptr, ptr getelementptr inbounds nuw (i8, ptr @evthread_lock_fns_, i64 32), align 8
  %43 = tail call i32 %42(i32 noundef 0, ptr noundef nonnull %.sink) #16
  br label %44

44:                                               ; preds = %.sink.split, %40, %18
  %.041 = phi i32 [ -1, %18 ], [ %.0, %40 ], [ %.041.ph, %.sink.split ]
  ret i32 %.041
}